; Function Attrs: mustprogress uwtable
define void @_ZNK32pxrInternal_v0_24__pxrReserved__29HdFlattenedDataSourceProvider7Context18GetInputDataSourceEv(ptr dead_on_unwind noalias writable writeonly sret(%"class.std::shared_ptr") align 8 captures(none) initializes((0, 16)) %0, ptr noundef nonnull readonly align 8 captures(none) dereferenceable(32) %1) local_unnamed_addr #0 align 2 {
  %3 = getelementptr inbounds nuw i8, ptr %1, i64 24
  %4 = load ptr, ptr %3, align 8
  %5 = getelementptr inbounds nuw i8, ptr %1, i64 16
  %6 = load ptr, ptr %5, align 8
  %.val = load ptr, ptr %4, align 8
  tail call fastcc void @_ZN32pxrInternal_v0_24__pxrReserved__L4_GetERKSt10shared_ptrINS_21HdContainerDataSourceEERKNS_7TfTokenE(ptr dead_on_unwind noalias writable align 8 %0, ptr %.val, ptr noundef nonnull align 8 dereferenceable(8) %6)
  ret void
}